; ModuleID = '51/9.c'
source_filename = "51/9.c"
target datalayout = "e-m:e-p270:32:32-p271:32:32-p272:64:64-i64:64-f80:128-n8:16:32:64-S128"
target triple = "x86_64-pc-linux-gnu"

@.str = private unnamed_addr constant [4 x i8] c"%d\0A\00", align 1
@.str.1 = private unnamed_addr constant [3 x i8] c"NO\00", align 1
@.str.2 = private unnamed_addr constant [3 x i8] c"%d\00", align 1
@.str.3 = private unnamed_addr constant [4 x i8] c"\0A%s\00", align 1

; Function Attrs: noinline nounwind uwtable
define dso_local i32 @main() #0 {
  %1 = alloca i32, align 4
  %2 = alloca [501 x i8], align 16
  %3 = alloca [500 x [5 x i8]], align 16
  %4 = alloca [5 x i8], align 1
  %5 = alloca [500 x i32], align 16
  %6 = alloca i32, align 4
  %7 = alloca i32, align 4
  %8 = alloca i32, align 4
  %9 = alloca i32, align 4
  %10 = alloca i32, align 4
  %11 = alloca i32, align 4
  store i32 0, i32* %1, align 4
  %12 = bitcast [501 x i8]* %2 to i8*
  call void @llvm.memset.p0i8.i64(i8* align 16 %12, i8 0, i64 501, i1 false)
  %13 = bitcast [500 x [5 x i8]]* %3 to i8*
  call void @llvm.memset.p0i8.i64(i8* align 16 %13, i8 0, i64 2500, i1 false)
  %14 = bitcast [5 x i8]* %4 to i8*
  call void @llvm.memset.p0i8.i64(i8* align 1 %14, i8 0, i64 5, i1 false)
  %15 = bitcast [500 x i32]* %5 to i8*
  call void @llvm.memset.p0i8.i64(i8* align 16 %15, i8 0, i64 2000, i1 false)
  store i32 0, i32* %10, align 4
  %16 = call i32 (i8*, ...) @__isoc99_scanf(i8* getelementptr inbounds ([4 x i8], [4 x i8]* @.str, i64 0, i64 0), i32* %7)
  %17 = getelementptr inbounds [501 x i8], [501 x i8]* %2, i64 0, i64 0
  %18 = call i32 (i8*, ...) bitcast (i32 (...)* @gets to i32 (i8*, ...)*)(i8* %17)
  %19 = getelementptr inbounds [501 x i8], [501 x i8]* %2, i64 0, i64 0
  %20 = call i64 @strlen(i8* %19) #5
  %21 = trunc i64 %20 to i32
  store i32 %21, i32* %6, align 4
  store i32 0, i32* %8, align 4
  br label %22

22:                                               ; preds = %91, %0
  %23 = load i32, i32* %8, align 4
  %24 = load i32, i32* %6, align 4
  %25 = load i32, i32* %7, align 4
  %26 = sub nsw i32 %24, %25
  %27 = add nsw i32 %26, 1
  %28 = icmp slt i32 %23, %27
  br i1 %28, label %29, label %94

29:                                               ; preds = %22
  store i32 0, i32* %11, align 4
  store i32 0, i32* %9, align 4
  br label %30

30:                                               ; preds = %44, %29
  %31 = load i32, i32* %9, align 4
  %32 = load i32, i32* %7, align 4
  %33 = icmp slt i32 %31, %32
  br i1 %33, label %34, label %47

34:                                               ; preds = %30
  %35 = load i32, i32* %8, align 4
  %36 = load i32, i32* %9, align 4
  %37 = add nsw i32 %35, %36
  %38 = sext i32 %37 to i64
  %39 = getelementptr inbounds [501 x i8], [501 x i8]* %2, i64 0, i64 %38
  %40 = load i8, i8* %39, align 1
  %41 = load i32, i32* %9, align 4
  %42 = sext i32 %41 to i64
  %43 = getelementptr inbounds [5 x i8], [5 x i8]* %4, i64 0, i64 %42
  store i8 %40, i8* %43, align 1
  br label %44

44:                                               ; preds = %34
  %45 = load i32, i32* %9, align 4
  %46 = add nsw i32 %45, 1
  store i32 %46, i32* %9, align 4
  br label %30

47:                                               ; preds = %30
  store i32 0, i32* %9, align 4
  br label %48

48:                                               ; preds = %69, %47
  %49 = load i32, i32* %9, align 4
  %50 = load i32, i32* %10, align 4
  %51 = icmp slt i32 %49, %50
  br i1 %51, label %52, label %72

52:                                               ; preds = %48
  %53 = getelementptr inbounds [5 x i8], [5 x i8]* %4, i64 0, i64 0
  %54 = load i32, i32* %9, align 4
  %55 = sext i32 %54 to i64
  %56 = getelementptr inbounds [500 x [5 x i8]], [500 x [5 x i8]]* %3, i64 0, i64 %55
  %57 = getelementptr inbounds [5 x i8], [5 x i8]* %56, i64 0, i64 0
  %58 = call i32 @strcmp(i8* %53, i8* %57) #5
  %59 = icmp eq i32 %58, 0
  br i1 %59, label %60, label %68

60:                                               ; preds = %52
  %61 = load i32, i32* %9, align 4
  %62 = sext i32 %61 to i64
  %63 = getelementptr inbounds [500 x i32], [500 x i32]* %5, i64 0, i64 %62
  %64 = load i32, i32* %63, align 4
  %65 = add nsw i32 %64, 1
  store i32 %65, i32* %63, align 4
  %66 = load i32, i32* %11, align 4
  %67 = add nsw i32 %66, 1
  store i32 %67, i32* %11, align 4
  br label %68

68:                                               ; preds = %60, %52
  br label %69

69:                                               ; preds = %68
  %70 = load i32, i32* %9, align 4
  %71 = add nsw i32 %70, 1
  store i32 %71, i32* %9, align 4
  br label %48

72:                                               ; preds = %48
  %73 = load i32, i32* %11, align 4
  %74 = icmp eq i32 %73, 0
  br i1 %74, label %75, label %90

75:                                               ; preds = %72
  %76 = load i32, i32* %10, align 4
  %77 = sext i32 %76 to i64
  %78 = getelementptr inbounds [500 x [5 x i8]], [500 x [5 x i8]]* %3, i64 0, i64 %77
  %79 = getelementptr inbounds [5 x i8], [5 x i8]* %78, i64 0, i64 0
  %80 = getelementptr inbounds [5 x i8], [5 x i8]* %4, i64 0, i64 0
  %81 = call i8* @strcpy(i8* %79, i8* %80) #6
  %82 = load i32, i32* %10, align 4
  %83 = add nsw i32 %82, 1
  store i32 %83, i32* %10, align 4
  %84 = load i32, i32* %10, align 4
  %85 = sub nsw i32 %84, 1
  %86 = sext i32 %85 to i64
  %87 = getelementptr inbounds [500 x i32], [500 x i32]* %5, i64 0, i64 %86
  %88 = load i32, i32* %87, align 4
  %89 = add nsw i32 %88, 1
  store i32 %89, i32* %87, align 4
  br label %90

90:                                               ; preds = %75, %72
  br label %91

91:                                               ; preds = %90
  %92 = load i32, i32* %8, align 4
  %93 = add nsw i32 %92, 1
  store i32 %93, i32* %8, align 4
  br label %22

94:                                               ; preds = %22
  %95 = getelementptr inbounds [500 x i32], [500 x i32]* %5, i64 0, i64 0
  %96 = load i32, i32* %95, align 16
  store i32 %96, i32* %11, align 4
  store i32 0, i32* %8, align 4
  br label %97

97:                                               ; preds = %114, %94
  %98 = load i32, i32* %8, align 4
  %99 = load i32, i32* %10, align 4
  %100 = icmp slt i32 %98, %99
  br i1 %100, label %101, label %117

101:                                              ; preds = %97
  %102 = load i32, i32* %11, align 4
  %103 = load i32, i32* %8, align 4
  %104 = sext i32 %103 to i64
  %105 = getelementptr inbounds [500 x i32], [500 x i32]* %5, i64 0, i64 %104
  %106 = load i32, i32* %105, align 4
  %107 = icmp slt i32 %102, %106
  br i1 %107, label %108, label %113

108:                                              ; preds = %101
  %109 = load i32, i32* %8, align 4
  %110 = sext i32 %109 to i64
  %111 = getelementptr inbounds [500 x i32], [500 x i32]* %5, i64 0, i64 %110
  %112 = load i32, i32* %111, align 4
  store i32 %112, i32* %11, align 4
  br label %113

113:                                              ; preds = %108, %101
  br label %114

114:                                              ; preds = %113
  %115 = load i32, i32* %8, align 4
  %116 = add nsw i32 %115, 1
  store i32 %116, i32* %8, align 4
  br label %97

117:                                              ; preds = %97
  %118 = load i32, i32* %11, align 4
  %119 = icmp eq i32 %118, 1
  br i1 %119, label %120, label %122

120:                                              ; preds = %117
  %121 = call i32 (i8*, ...) @printf(i8* getelementptr inbounds ([3 x i8], [3 x i8]* @.str.1, i64 0, i64 0))
  br label %147

122:                                              ; preds = %117
  %123 = load i32, i32* %11, align 4
  %124 = call i32 (i8*, ...) @printf(i8* getelementptr inbounds ([3 x i8], [3 x i8]* @.str.2, i64 0, i64 0), i32 %123)
  store i32 0, i32* %8, align 4
  br label %125

125:                                              ; preds = %143, %122
  %126 = load i32, i32* %8, align 4
  %127 = load i32, i32* %10, align 4
  %128 = icmp slt i32 %126, %127
  br i1 %128, label %129, label %146

129:                                              ; preds = %125
  %130 = load i32, i32* %8, align 4
  %131 = sext i32 %130 to i64
  %132 = getelementptr inbounds [500 x i32], [500 x i32]* %5, i64 0, i64 %131
  %133 = load i32, i32* %132, align 4
  %134 = load i32, i32* %11, align 4
  %135 = icmp eq i32 %133, %134
  br i1 %135, label %136, label %142

136:                                              ; preds = %129
  %137 = load i32, i32* %8, align 4
  %138 = sext i32 %137 to i64
  %139 = getelementptr inbounds [500 x [5 x i8]], [500 x [5 x i8]]* %3, i64 0, i64 %138
  %140 = getelementptr inbounds [5 x i8], [5 x i8]* %139, i64 0, i64 0
  %141 = call i32 (i8*, ...) @printf(i8* getelementptr inbounds ([4 x i8], [4 x i8]* @.str.3, i64 0, i64 0), i8* %140)
  br label %142

142:                                              ; preds = %136, %129
  br label %143

143:                                              ; preds = %142
  %144 = load i32, i32* %8, align 4
  %145 = add nsw i32 %144, 1
  store i32 %145, i32* %8, align 4
  br label %125

146:                                              ; preds = %125
  br label %147

147:                                              ; preds = %146, %120
  ret i32 0
}

; Function Attrs: argmemonly nounwind willreturn
declare void @llvm.memset.p0i8.i64(i8* nocapture writeonly, i8, i64, i1 immarg) #1

declare dso_local i32 @__isoc99_scanf(i8*, ...) #2

declare dso_local i32 @gets(...) #2

; Function Attrs: nounwind readonly
declare dso_local i64 @strlen(i8*) #3

; Function Attrs: nounwind readonly
declare dso_local i32 @strcmp(i8*, i8*) #3

; Function Attrs: nounwind
declare dso_local i8* @strcpy(i8*, i8*) #4

declare dso_local i32 @printf(i8*, ...) #2


!llvm.module.flags = !{!0}
!llvm.ident = !{!1}

!0 = !{i32 1, !"wchar_size", i32 4}
!1 = !{!"clang version 10.0.0-4ubuntu1 "}
